target datalayout = "e-m:e-p270:32:32-p271:32:32-p272:64:64-i64:64-i128:128-f80:128-n8:16:32:64-S128"
target triple = "x86_64-pc-linux-gnu"

%"class.net::QuicSession" = type <{ %"class.net::QuicConnectionVisitorInterface", %"class.std::map", ptr, %"class.std::vector", %"class.net::QuicConfig", i64, i64, %"class.base::SmallMap", %"class.base::SmallMap.15", i32, [4 x i8], %"class.std::unordered_set", %"class.std::unordered_set", %"class.net::QuicWriteBlockedList", i32, [4 x i8], i64, i64, i64, i32, [4 x i8], %"class.net::QuicFlowController", i32, [4 x i8] }>
%"class.net::QuicConnectionVisitorInterface" = type { ptr }
%"class.std::map" = type { %"class.std::_Rb_tree" }
%"class.std::_Rb_tree" = type { %"struct.std::_Rb_tree<unsigned int, std::pair<const unsigned int, unsigned long>, std::_Select1st<std::pair<const unsigned int, unsigned long>>, std::less<unsigned int>>::_Rb_tree_impl" }
%"struct.std::_Rb_tree<unsigned int, std::pair<const unsigned int, unsigned long>, std::_Select1st<std::pair<const unsigned int, unsigned long>>, std::less<unsigned int>>::_Rb_tree_impl" = type { [8 x i8], %"struct.std::_Rb_tree_header" }
%"struct.std::_Rb_tree_header" = type { %"struct.std::_Rb_tree_node_base", i64 }
%"struct.std::_Rb_tree_node_base" = type { i32, ptr, ptr, ptr }
%"class.std::vector" = type { %"struct.std::_Vector_base" }
%"struct.std::_Vector_base" = type { %"struct.std::_Vector_base<net::ReliableQuicStream *, std::allocator<net::ReliableQuicStream *>>::_Vector_impl" }
%"struct.std::_Vector_base<net::ReliableQuicStream *, std::allocator<net::ReliableQuicStream *>>::_Vector_impl" = type { %"struct.std::_Vector_base<net::ReliableQuicStream *, std::allocator<net::ReliableQuicStream *>>::_Vector_impl_data" }
%"struct.std::_Vector_base<net::ReliableQuicStream *, std::allocator<net::ReliableQuicStream *>>::_Vector_impl_data" = type { ptr, ptr, ptr }
%"class.net::QuicConfig" = type { %"class.net::QuicTime::Delta", %"class.net::QuicTime::Delta", i64, %"class.net::QuicFixedTagVector", %"class.net::QuicNegotiableUint32", %"class.net::QuicNegotiableUint32", %"class.net::QuicNegotiableUint32", %"class.net::QuicFixedUint32", %"class.net::QuicFixedUint32", %"class.net::QuicFixedUint32", %"class.net::QuicFixedUint32", %"class.net::QuicFixedUint32", %"class.net::QuicFixedUint32", %"class.net::QuicNegotiableUint32", %"class.net::QuicFixedUint32", %"class.net::QuicFixedIPEndPoint", %"class.net::QuicFixedUint32" }
%"class.net::QuicTime::Delta" = type { %"class.base::TimeDelta", i64 }
%"class.base::TimeDelta" = type { i64 }
%"class.net::QuicFixedTagVector" = type <{ %"class.net::QuicConfigValue", %"class.std::vector.3", i8, [7 x i8], %"class.std::vector.3", i8, [7 x i8] }>
%"class.net::QuicConfigValue" = type { ptr, i32, i32 }
%"class.std::vector.3" = type { %"struct.std::_Vector_base.4" }
%"struct.std::_Vector_base.4" = type { %"struct.std::_Vector_base<unsigned int, std::allocator<unsigned int>>::_Vector_impl" }
%"struct.std::_Vector_base<unsigned int, std::allocator<unsigned int>>::_Vector_impl" = type { %"struct.std::_Vector_base<unsigned int, std::allocator<unsigned int>>::_Vector_impl_data" }
%"struct.std::_Vector_base<unsigned int, std::allocator<unsigned int>>::_Vector_impl_data" = type { ptr, ptr, ptr }
%"class.net::QuicNegotiableUint32" = type { %"class.net::QuicNegotiableValue.base", i32, i32, i32 }
%"class.net::QuicNegotiableValue.base" = type <{ %"class.net::QuicConfigValue", i8 }>
%"class.net::QuicFixedIPEndPoint" = type <{ %"class.net::QuicConfigValue", %"class.net::IPEndPoint", i8, [7 x i8], %"class.net::IPEndPoint", i8, [7 x i8] }>
%"class.net::IPEndPoint" = type <{ %"class.net::IPAddress", i16, [6 x i8] }>
%"class.net::IPAddress" = type { %"class.std::vector.8" }
%"class.std::vector.8" = type { %"struct.std::_Vector_base.9" }
%"struct.std::_Vector_base.9" = type { %"struct.std::_Vector_base<unsigned char, std::allocator<unsigned char>>::_Vector_impl" }
%"struct.std::_Vector_base<unsigned char, std::allocator<unsigned char>>::_Vector_impl" = type { %"struct.std::_Vector_base<unsigned char, std::allocator<unsigned char>>::_Vector_impl_data" }
%"struct.std::_Vector_base<unsigned char, std::allocator<unsigned char>>::_Vector_impl_data" = type { ptr, ptr, ptr }
%"class.net::QuicFixedUint32" = type <{ %"class.net::QuicConfigValue", i32, i8, [3 x i8], i32, i8, [3 x i8] }>
%"class.base::SmallMap" = type { i32, [4 x i8], %union.anon }
%union.anon = type { %"class.base::ManualConstructor.13" }
%"class.base::ManualConstructor.13" = type { %"class.base::AlignedMemory.14" }
%"class.base::AlignedMemory.14" = type { [56 x i8] }
%"class.base::SmallMap.15" = type { i32, [4 x i8], %union.anon.16 }
%union.anon.16 = type { [10 x %"class.base::ManualConstructor"] }
%"class.base::ManualConstructor" = type { %"class.base::AlignedMemory" }
%"class.base::AlignedMemory" = type { [16 x i8] }
%"class.std::unordered_set" = type { %"class.std::_Hashtable" }
%"class.std::_Hashtable" = type { ptr, i64, %"struct.std::__detail::_Hash_node_base", i64, %"struct.std::__detail::_Prime_rehash_policy", ptr }
%"struct.std::__detail::_Hash_node_base" = type { ptr }
%"struct.std::__detail::_Prime_rehash_policy" = type { float, i64 }
%"class.net::QuicWriteBlockedList" = type <{ %"class.net::PriorityWriteScheduler", [8 x i32], [8 x i32], i8, i8, i8, [5 x i8] }>
%"class.net::PriorityWriteScheduler" = type { %"class.net::WriteScheduler", i64, [8 x %"struct.net::PriorityWriteScheduler<unsigned int>::PriorityInfo"], %"class.std::unordered_map" }
%"class.net::WriteScheduler" = type { ptr }
%"struct.net::PriorityWriteScheduler<unsigned int>::PriorityInfo" = type { %"class.std::deque", i64 }
%"class.std::deque" = type { %"class.std::_Deque_base" }
%"class.std::_Deque_base" = type { %"struct.std::_Deque_base<net::PriorityWriteScheduler<unsigned int>::StreamInfo *, std::allocator<net::PriorityWriteScheduler<unsigned int>::StreamInfo *>>::_Deque_impl" }
%"struct.std::_Deque_base<net::PriorityWriteScheduler<unsigned int>::StreamInfo *, std::allocator<net::PriorityWriteScheduler<unsigned int>::StreamInfo *>>::_Deque_impl" = type { %"struct.std::_Deque_base<net::PriorityWriteScheduler<unsigned int>::StreamInfo *, std::allocator<net::PriorityWriteScheduler<unsigned int>::StreamInfo *>>::_Deque_impl_data" }
%"struct.std::_Deque_base<net::PriorityWriteScheduler<unsigned int>::StreamInfo *, std::allocator<net::PriorityWriteScheduler<unsigned int>::StreamInfo *>>::_Deque_impl_data" = type { ptr, i64, %"struct.std::_Deque_iterator", %"struct.std::_Deque_iterator" }
%"struct.std::_Deque_iterator" = type { ptr, ptr, ptr, ptr }
%"class.std::unordered_map" = type { %"class.std::_Hashtable.25" }
%"class.std::_Hashtable.25" = type { ptr, i64, %"struct.std::__detail::_Hash_node_base", i64, %"struct.std::__detail::_Prime_rehash_policy", ptr }
%"class.net::QuicFlowController" = type { ptr, i32, i32, i64, i64, i64, i64, i64, i64, i64, i8, i64, %"class.net::QuicTime" }
%"class.net::QuicTime" = type { i64 }
%"class.std::unordered_map.240" = type { %"class.std::_Hashtable.241" }
%"class.std::_Hashtable.241" = type { ptr, i64, %"struct.std::__detail::_Hash_node_base", i64, %"struct.std::__detail::_Prime_rehash_policy", ptr }

; Function Attrs: mustprogress nounwind uwtable
define linkonce_odr noundef ptr @_ZNK4base13AlignedMemoryILm56ELm8EE9void_dataEv(ptr noundef nonnull align 8 dereferenceable(56) %0) #2 comdat align 2 {
  %2 = alloca ptr, align 8
  store ptr %0, ptr %2, align 8, !tbaa !658
  %3 = load ptr, ptr %2, align 8
  %4 = getelementptr inbounds nuw %"class.base::AlignedMemory.14", ptr %3, i32 0, i32 0
  %5 = getelementptr inbounds [56 x i8], ptr %4, i64 0, i64 0
  ret ptr %5
}

; Function Attrs: mustprogress uwtable
define linkonce_odr noundef ptr @_ZNK4base13AlignedMemoryILm56ELm8EE7data_asISt13unordered_mapIjPN3net18ReliableQuicStreamESt4hashIjESt8equal_toIjESaISt4pairIKjS6_EEEEEPKT_v(ptr noundef nonnull align 8 dereferenceable(56) %0) #0 comdat align 2 {
  %2 = alloca ptr, align 8
  store ptr %0, ptr %2, align 8, !tbaa !658
  %3 = load ptr, ptr %2, align 8
  %4 = call noundef ptr @_ZNK4base13AlignedMemoryILm56ELm8EE9void_dataEv(ptr noundef nonnull align 8 dereferenceable(56) %3)
  ret ptr %4
}

; Function Attrs: mustprogress nounwind uwtable
define linkonce_odr noundef i64 @_ZNKSt10_HashtableIjSt4pairIKjPN3net18ReliableQuicStreamEESaIS5_ENSt8__detail10_Select1stESt8equal_toIjESt4hashIjENS7_18_Mod_range_hashingENS7_20_Default_ranged_hashENS7_20_Prime_rehash_policyENS7_17_Hashtable_traitsILb0ELb0ELb1EEEE4sizeEv(ptr noundef nonnull align 8 dereferenceable(56) %0) #2 comdat align 2 {
  %2 = alloca ptr, align 8
  store ptr %0, ptr %2, align 8, !tbaa !660
  %3 = load ptr, ptr %2, align 8
  %4 = getelementptr inbounds nuw %"class.std::_Hashtable.241", ptr %3, i32 0, i32 3
  %5 = load i64, ptr %4, align 8, !tbaa !662
  ret i64 %5
}

; Function Attrs: inlinehint mustprogress uwtable
define linkonce_odr noundef ptr @_ZNK4base17ManualConstructorISt13unordered_mapIjPN3net18ReliableQuicStreamESt4hashIjESt8equal_toIjESaISt4pairIKjS4_EEEE3getEv(ptr noundef nonnull align 8 dereferenceable(56) %0) #8 comdat align 2 {
  %2 = alloca ptr, align 8
  store ptr %0, ptr %2, align 8, !tbaa !654
  %3 = load ptr, ptr %2, align 8
  %4 = getelementptr inbounds nuw %"class.base::ManualConstructor.13", ptr %3, i32 0, i32 0
  %5 = call noundef ptr @_ZNK4base13AlignedMemoryILm56ELm8EE7data_asISt13unordered_mapIjPN3net18ReliableQuicStreamESt4hashIjESt8equal_toIjESaISt4pairIKjS6_EEEEEPKT_v(ptr noundef nonnull align 8 dereferenceable(56) %4)
  ret ptr %5
}

; Function Attrs: mustprogress nounwind uwtable
define linkonce_odr noundef i64 @_ZNKSt10_HashtableIjjSaIjENSt8__detail9_IdentityESt8equal_toIjESt4hashIjENS1_18_Mod_range_hashingENS1_20_Default_ranged_hashENS1_20_Prime_rehash_policyENS1_17_Hashtable_traitsILb0ELb1ELb1EEEE4sizeEv(ptr noundef nonnull align 8 dereferenceable(56) %0) #2 comdat align 2 {
  %2 = alloca ptr, align 8
  store ptr %0, ptr %2, align 8, !tbaa !457
  %3 = load ptr, ptr %2, align 8
  %4 = getelementptr inbounds nuw %"class.std::_Hashtable", ptr %3, i32 0, i32 3
  %5 = load i64, ptr %4, align 8, !tbaa !461
  ret i64 %5
}

; Function Attrs: mustprogress nounwind uwtable
define linkonce_odr noundef i64 @_ZNKSt13unordered_mapIjPN3net18ReliableQuicStreamESt4hashIjESt8equal_toIjESaISt4pairIKjS2_EEE4sizeEv(ptr noundef nonnull align 8 dereferenceable(56) %0) #2 comdat align 2 {
  %2 = alloca ptr, align 8
  store ptr %0, ptr %2, align 8, !tbaa !656
  %3 = load ptr, ptr %2, align 8
  %4 = getelementptr inbounds nuw %"class.std::unordered_map.240", ptr %3, i32 0, i32 0
  %5 = call noundef i64 @_ZNKSt10_HashtableIjSt4pairIKjPN3net18ReliableQuicStreamEESaIS5_ENSt8__detail10_Select1stESt8equal_toIjESt4hashIjENS7_18_Mod_range_hashingENS7_20_Default_ranged_hashENS7_20_Prime_rehash_policyENS7_17_Hashtable_traitsILb0ELb0ELb1EEEE4sizeEv(ptr noundef nonnull align 8 dereferenceable(56) %4) #17
  ret i64 %5
}

; Function Attrs: inlinehint mustprogress uwtable
define linkonce_odr noundef ptr @_ZNK4base17ManualConstructorISt13unordered_mapIjPN3net18ReliableQuicStreamESt4hashIjESt8equal_toIjESaISt4pairIKjS4_EEEEptEv(ptr noundef nonnull align 8 dereferenceable(56) %0) #8 comdat align 2 {
  %2 = alloca ptr, align 8
  store ptr %0, ptr %2, align 8, !tbaa !654
  %3 = load ptr, ptr %2, align 8
  %4 = call noundef ptr @_ZNK4base17ManualConstructorISt13unordered_mapIjPN3net18ReliableQuicStreamESt4hashIjESt8equal_toIjESaISt4pairIKjS4_EEEE3getEv(ptr noundef nonnull align 8 dereferenceable(56) %3)
  ret ptr %4
}

; Function Attrs: mustprogress nounwind uwtable
define linkonce_odr noundef i64 @_ZNKSt13unordered_setIjSt4hashIjESt8equal_toIjESaIjEE4sizeEv(ptr noundef nonnull align 8 dereferenceable(56) %0) #2 comdat align 2 {
  %2 = alloca ptr, align 8
  store ptr %0, ptr %2, align 8, !tbaa !97
  %3 = load ptr, ptr %2, align 8
  %4 = getelementptr inbounds nuw %"class.std::unordered_set", ptr %3, i32 0, i32 0
  %5 = call noundef i64 @_ZNKSt10_HashtableIjjSaIjENSt8__detail9_IdentityESt8equal_toIjESt4hashIjENS1_18_Mod_range_hashingENS1_20_Default_ranged_hashENS1_20_Prime_rehash_policyENS1_17_Hashtable_traitsILb0ELb1ELb1EEEE4sizeEv(ptr noundef nonnull align 8 dereferenceable(56) %4) #17
  ret i64 %5
}

; Function Attrs: mustprogress uwtable
define linkonce_odr noundef i64 @_ZNK4base8SmallMapISt13unordered_mapIjPN3net18ReliableQuicStreamESt4hashIjESt8equal_toIjESaISt4pairIKjS4_EEELi10ES8_NS_8internal19SmallMapDefaultInitISD_EEE4sizeEv(ptr noundef nonnull align 8 dereferenceable(168) %0) #0 comdat align 2 {
  %2 = alloca i64, align 8
  %3 = alloca ptr, align 8
  store ptr %0, ptr %3, align 8, !tbaa !94
  %4 = load ptr, ptr %3, align 8
  %5 = getelementptr inbounds nuw %"class.base::SmallMap.15", ptr %4, i32 0, i32 0
  %6 = load i32, ptr %5, align 8, !tbaa !96
  %7 = icmp sge i32 %6, 0
  br i1 %7, label %8, label %12

8:                                                ; preds = %1
  %9 = getelementptr inbounds nuw %"class.base::SmallMap.15", ptr %4, i32 0, i32 0
  %10 = load i32, ptr %9, align 8, !tbaa !96
  %11 = sext i32 %10 to i64
  store i64 %11, ptr %2, align 8
  br label %16

12:                                               ; preds = %1
  %13 = getelementptr inbounds nuw %"class.base::SmallMap.15", ptr %4, i32 0, i32 2
  %14 = call noundef ptr @_ZNK4base17ManualConstructorISt13unordered_mapIjPN3net18ReliableQuicStreamESt4hashIjESt8equal_toIjESaISt4pairIKjS4_EEEEptEv(ptr noundef nonnull align 8 dereferenceable(56) %13)
  %15 = call noundef i64 @_ZNKSt13unordered_mapIjPN3net18ReliableQuicStreamESt4hashIjESt8equal_toIjESaISt4pairIKjS2_EEE4sizeEv(ptr noundef nonnull align 8 dereferenceable(56) %14) #17
  store i64 %15, ptr %2, align 8
  br label %16

16:                                               ; preds = %12, %8
  %17 = load i64, ptr %2, align 8
  ret i64 %17
}

; Function Attrs: mustprogress uwtable
define noundef i64 @_ZNK3net11QuicSession19GetNumActiveStreamsEv(ptr noundef nonnull align 8 dereferenceable(2044) %0) unnamed_addr #0 align 2 {
  %2 = alloca ptr, align 8
  store ptr %0, ptr %2, align 8, !tbaa !3
  %3 = load ptr, ptr %2, align 8
  %4 = getelementptr inbounds nuw %"class.net::QuicSession", ptr %3, i32 0, i32 8
  %5 = call noundef i64 @_ZNK4base8SmallMapISt13unordered_mapIjPN3net18ReliableQuicStreamESt4hashIjESt8equal_toIjESaISt4pairIKjS4_EEELi10ES8_NS_8internal19SmallMapDefaultInitISD_EEE4sizeEv(ptr noundef nonnull align 8 dereferenceable(168) %4)
  %6 = getelementptr inbounds nuw %"class.net::QuicSession", ptr %3, i32 0, i32 12
  %7 = call noundef i64 @_ZNKSt13unordered_setIjSt4hashIjESt8equal_toIjESaIjEE4sizeEv(ptr noundef nonnull align 8 dereferenceable(56) %6) #17
  %8 = sub i64 %5, %7
  ret i64 %8
}