; Function Attrs: mustprogress nofree norecurse nosync nounwind willreturn memory(argmem: read) uwtable
define noundef i64 @_ZNK3net11QuicSession19GetNumActiveStreamsEv(ptr noundef nonnull readonly align 8 captures(none) dereferenceable(2044) %0) unnamed_addr #11 align 2 {
  %2 = getelementptr inbounds nuw i8, ptr %0, i64 768
  %3 = load i32, ptr %2, align 8, !tbaa !79
  %4 = zext nneg i32 %3 to i64
  %5 = getelementptr inbounds nuw i8, ptr %0, i64 800
  %6 = load i64, ptr %5, align 8
  %7 = icmp slt i32 %3, 0
  %.0.i = select i1 %7, i64 %6, i64 %4
  %8 = getelementptr inbounds nuw i8, ptr %0, i64 1024
  %9 = load i64, ptr %8, align 8, !tbaa !277
  %10 = sub i64 %.0.i, %9
  ret i64 %10
}